; Function Attrs: mustprogress nounwind uwtable
define internal void @"_ZN4absl12lts_2023080222internal_any_invocable22LocalManagerNontrivialIZN9grpc_core12_GLOBAL__N_15RlsLb5Cache17StartCleanupTimerEvE3$_0EEvNS1_14FunctionToCallEPNS1_15TypeErasedStateESA_"(i1 noundef zeroext %operation, ptr nocapture noundef %from, ptr nocapture noundef writeonly %to) #11 personality ptr @__gxx_personality_v0 {
entry:
  br i1 %operation, label %sw.bb1, label %sw.bb1.thread

sw.bb1.thread:                                    ; preds = %entry
  %0 = load ptr, ptr %from, align 8
  store ptr %0, ptr %to, align 8
  %1 = getelementptr inbounds i8, ptr %to, i64 8
  %2 = getelementptr inbounds i8, ptr %from, i64 8
  store ptr null, ptr %1, align 8
  %3 = load ptr, ptr %2, align 8
  store ptr %3, ptr %1, align 8
  store ptr null, ptr %2, align 8
  br label %"_ZZN9grpc_core12_GLOBAL__N_15RlsLb5Cache17StartCleanupTimerEvEN3$_0D2Ev.exit"

sw.bb1:                                           ; preds = %entry
  %.phi.trans.insert = getelementptr i8, ptr %from, i64 8
  %call.val.pre = load ptr, ptr %.phi.trans.insert, align 8
  %cmp.not.i.i = icmp eq ptr %call.val.pre, null
  br i1 %cmp.not.i.i, label %"_ZZN9grpc_core12_GLOBAL__N_15RlsLb5Cache17StartCleanupTimerEvEN3$_0D2Ev.exit", label %if.then.i.i

if.then.i.i:                                      ; preds = %sw.bb1
  %refs_.i.i.i = getelementptr inbounds i8, ptr %call.val.pre, i64 8
  %4 = atomicrmw sub ptr %refs_.i.i.i, i64 1 acq_rel, align 8
  %cmp.i.i.i.i = icmp eq i64 %4, 1
  br i1 %cmp.i.i.i.i, label %if.then.i.i.i, label %"_ZZN9grpc_core12_GLOBAL__N_15RlsLb5Cache17StartCleanupTimerEvEN3$_0D2Ev.exit"

if.then.i.i.i:                                    ; preds = %if.then.i.i
  %vtable.i.i.i.i = load ptr, ptr %call.val.pre, align 8
  %vfn.i.i.i.i = getelementptr inbounds i8, ptr %vtable.i.i.i.i, i64 16
  %5 = load ptr, ptr %vfn.i.i.i.i, align 8
  tail call void %5(ptr noundef nonnull align 8 dereferenceable(56) %call.val.pre) #31
  br label %"_ZZN9grpc_core12_GLOBAL__N_15RlsLb5Cache17StartCleanupTimerEvEN3$_0D2Ev.exit"

"_ZZN9grpc_core12_GLOBAL__N_15RlsLb5Cache17StartCleanupTimerEvEN3$_0D2Ev.exit": ; preds = %sw.bb1.thread, %sw.bb1, %if.then.i.i, %if.then.i.i.i
  ret void
}